target datalayout = "e-m:e-p270:32:32-p271:32:32-p272:64:64-i64:64-i128:128-f80:128-n8:16:32:64-S128"
target triple = "x86_64-pc-linux-gnu"

%"class.LIEF::MachO::DyldChainedFixups" = type { %"class.LIEF::MachO::LoadCommand", i32, i32, %"class.tcb::span", i32, i32, i32, i32, i32, i32, i32, %"class.std::vector.0", %"class.std::vector.5", %"class.std::vector.10" }
%"class.LIEF::MachO::LoadCommand" = type { %"class.LIEF::Object", %"class.std::vector", i64, i32, i64 }
%"class.LIEF::Object" = type { ptr }
%"class.std::vector" = type { %"struct.std::_Vector_base" }
%"struct.std::_Vector_base" = type { %"struct.std::_Vector_base<unsigned char, std::allocator<unsigned char>>::_Vector_impl" }
%"struct.std::_Vector_base<unsigned char, std::allocator<unsigned char>>::_Vector_impl" = type { %"struct.std::_Vector_base<unsigned char, std::allocator<unsigned char>>::_Vector_impl_data" }
%"struct.std::_Vector_base<unsigned char, std::allocator<unsigned char>>::_Vector_impl_data" = type { ptr, ptr, ptr }
%"class.tcb::span" = type { %"struct.tcb::detail::span_storage" }
%"struct.tcb::detail::span_storage" = type { ptr, i64 }
%"class.std::vector.0" = type { %"struct.std::_Vector_base.1" }
%"struct.std::_Vector_base.1" = type { %"struct.std::_Vector_base<LIEF::MachO::DyldChainedFixups::chained_starts_in_segment, std::allocator<LIEF::MachO::DyldChainedFixups::chained_starts_in_segment>>::_Vector_impl" }
%"struct.std::_Vector_base<LIEF::MachO::DyldChainedFixups::chained_starts_in_segment, std::allocator<LIEF::MachO::DyldChainedFixups::chained_starts_in_segment>>::_Vector_impl" = type { %"struct.std::_Vector_base<LIEF::MachO::DyldChainedFixups::chained_starts_in_segment, std::allocator<LIEF::MachO::DyldChainedFixups::chained_starts_in_segment>>::_Vector_impl_data" }
%"struct.std::_Vector_base<LIEF::MachO::DyldChainedFixups::chained_starts_in_segment, std::allocator<LIEF::MachO::DyldChainedFixups::chained_starts_in_segment>>::_Vector_impl_data" = type { ptr, ptr, ptr }
%"class.std::vector.5" = type { %"struct.std::_Vector_base.6" }
%"struct.std::_Vector_base.6" = type { %"struct.std::_Vector_base<std::unique_ptr<LIEF::MachO::ChainedBindingInfoList>, std::allocator<std::unique_ptr<LIEF::MachO::ChainedBindingInfoList>>>::_Vector_impl" }
%"struct.std::_Vector_base<std::unique_ptr<LIEF::MachO::ChainedBindingInfoList>, std::allocator<std::unique_ptr<LIEF::MachO::ChainedBindingInfoList>>>::_Vector_impl" = type { %"struct.std::_Vector_base<std::unique_ptr<LIEF::MachO::ChainedBindingInfoList>, std::allocator<std::unique_ptr<LIEF::MachO::ChainedBindingInfoList>>>::_Vector_impl_data" }
%"struct.std::_Vector_base<std::unique_ptr<LIEF::MachO::ChainedBindingInfoList>, std::allocator<std::unique_ptr<LIEF::MachO::ChainedBindingInfoList>>>::_Vector_impl_data" = type { ptr, ptr, ptr }
%"class.std::vector.10" = type { %"struct.std::_Vector_base.11" }
%"struct.std::_Vector_base.11" = type { %"struct.std::_Vector_base<std::unique_ptr<LIEF::MachO::ChainedBindingInfo>, std::allocator<std::unique_ptr<LIEF::MachO::ChainedBindingInfo>>>::_Vector_impl" }
%"struct.std::_Vector_base<std::unique_ptr<LIEF::MachO::ChainedBindingInfo>, std::allocator<std::unique_ptr<LIEF::MachO::ChainedBindingInfo>>>::_Vector_impl" = type { %"struct.std::_Vector_base<std::unique_ptr<LIEF::MachO::ChainedBindingInfo>, std::allocator<std::unique_ptr<LIEF::MachO::ChainedBindingInfo>>>::_Vector_impl_data" }
%"struct.std::_Vector_base<std::unique_ptr<LIEF::MachO::ChainedBindingInfo>, std::allocator<std::unique_ptr<LIEF::MachO::ChainedBindingInfo>>>::_Vector_impl_data" = type { ptr, ptr, ptr }
%"struct.LIEF::MachO::details::dyld_chained_fixups_header" = type { i32, i32, i32, i32, i32, i32, i32 }

; Function Attrs: mustprogress nounwind uwtable
define void @_ZN4LIEF5MachO17DyldChainedFixups11update_withERKNS0_7details26dyld_chained_fixups_headerE(ptr noundef nonnull align 8 dereferenceable(184) %0, ptr noundef nonnull align 4 dereferenceable(28) %1) #1 align 2 {
  %3 = alloca ptr, align 8
  %4 = alloca ptr, align 8
  store ptr %0, ptr %3, align 8
  store ptr %1, ptr %4, align 8
  %5 = load ptr, ptr %3, align 8
  %6 = load ptr, ptr %4, align 8
  %7 = getelementptr inbounds %"struct.LIEF::MachO::details::dyld_chained_fixups_header", ptr %6, i32 0, i32 0
  %8 = load i32, ptr %7, align 4
  %9 = getelementptr inbounds %"class.LIEF::MachO::DyldChainedFixups", ptr %5, i32 0, i32 4
  store i32 %8, ptr %9, align 8
  %10 = load ptr, ptr %4, align 8
  %11 = getelementptr inbounds %"struct.LIEF::MachO::details::dyld_chained_fixups_header", ptr %10, i32 0, i32 1
  %12 = load i32, ptr %11, align 4
  %13 = getelementptr inbounds %"class.LIEF::MachO::DyldChainedFixups", ptr %5, i32 0, i32 5
  store i32 %12, ptr %13, align 4
  %14 = load ptr, ptr %4, align 8
  %15 = getelementptr inbounds %"struct.LIEF::MachO::details::dyld_chained_fixups_header", ptr %14, i32 0, i32 2
  %16 = load i32, ptr %15, align 4
  %17 = getelementptr inbounds %"class.LIEF::MachO::DyldChainedFixups", ptr %5, i32 0, i32 6
  store i32 %16, ptr %17, align 8
  %18 = load ptr, ptr %4, align 8
  %19 = getelementptr inbounds %"struct.LIEF::MachO::details::dyld_chained_fixups_header", ptr %18, i32 0, i32 3
  %20 = load i32, ptr %19, align 4
  %21 = getelementptr inbounds %"class.LIEF::MachO::DyldChainedFixups", ptr %5, i32 0, i32 7
  store i32 %20, ptr %21, align 4
  %22 = load ptr, ptr %4, align 8
  %23 = getelementptr inbounds %"struct.LIEF::MachO::details::dyld_chained_fixups_header", ptr %22, i32 0, i32 4
  %24 = load i32, ptr %23, align 4
  %25 = getelementptr inbounds %"class.LIEF::MachO::DyldChainedFixups", ptr %5, i32 0, i32 8
  store i32 %24, ptr %25, align 8
  %26 = load ptr, ptr %4, align 8
  %27 = getelementptr inbounds %"struct.LIEF::MachO::details::dyld_chained_fixups_header", ptr %26, i32 0, i32 6
  %28 = load i32, ptr %27, align 4
  %29 = getelementptr inbounds %"class.LIEF::MachO::DyldChainedFixups", ptr %5, i32 0, i32 9
  store i32 %28, ptr %29, align 4
  %30 = load ptr, ptr %4, align 8
  %31 = getelementptr inbounds %"struct.LIEF::MachO::details::dyld_chained_fixups_header", ptr %30, i32 0, i32 5
  %32 = load i32, ptr %31, align 4
  %33 = getelementptr inbounds %"class.LIEF::MachO::DyldChainedFixups", ptr %5, i32 0, i32 10
  store i32 %32, ptr %33, align 8
  ret void
}