; Function Attrs: mustprogress nofree norecurse nosync nounwind willreturn memory(argmem: readwrite) uwtable
define void @_ZN4LIEF5MachO17DyldChainedFixups11update_withERKNS0_7details26dyld_chained_fixups_headerE(ptr nocapture noundef nonnull writeonly align 8 dereferenceable(184) %0, ptr nocapture noundef nonnull readonly align 4 dereferenceable(28) %1) local_unnamed_addr #5 align 2 {
  %3 = load i32, ptr %1, align 4
  %4 = getelementptr inbounds i8, ptr %0, i64 80
  store i32 %3, ptr %4, align 8
  %5 = getelementptr inbounds i8, ptr %1, i64 4
  %6 = load i32, ptr %5, align 4
  %7 = getelementptr inbounds i8, ptr %0, i64 84
  store i32 %6, ptr %7, align 4
  %8 = getelementptr inbounds i8, ptr %1, i64 8
  %9 = load i32, ptr %8, align 4
  %10 = getelementptr inbounds i8, ptr %0, i64 88
  store i32 %9, ptr %10, align 8
  %11 = getelementptr inbounds i8, ptr %1, i64 12
  %12 = load i32, ptr %11, align 4
  %13 = getelementptr inbounds i8, ptr %0, i64 92
  store i32 %12, ptr %13, align 4
  %14 = getelementptr inbounds i8, ptr %1, i64 16
  %15 = load i32, ptr %14, align 4
  %16 = getelementptr inbounds i8, ptr %0, i64 96
  store i32 %15, ptr %16, align 8
  %17 = getelementptr inbounds i8, ptr %1, i64 24
  %18 = load i32, ptr %17, align 4
  %19 = getelementptr inbounds i8, ptr %0, i64 100
  store i32 %18, ptr %19, align 4
  %20 = getelementptr inbounds i8, ptr %1, i64 20
  %21 = load i32, ptr %20, align 4
  %22 = getelementptr inbounds i8, ptr %0, i64 104
  store i32 %21, ptr %22, align 8
  ret void
}